target datalayout = "e-m:e-p270:32:32-p271:32:32-p272:64:64-i64:64-i128:128-f80:128-n8:16:32:64-S128"
target triple = "x86_64-pc-linux-gnu"

%struct._address = type { i32, i32, ptr, ptr }
%struct._radius_attr_info_t = type { ptr, %union._radius_attr_type_t, i32, i8, i8, ptr, ptr, ptr, i32, i32, i32, i32, i32, i32, ptr }
%union._radius_attr_type_t = type { i32 }
%struct._packet_info = type { ptr, ptr, i32, i32, %struct.nstime_t, %struct.nstime_t, %struct.nstime_t, i8, ptr, ptr, ptr, ptr, %struct._address, %struct._address, %struct._address, %struct._address, %struct._address, %struct._address, i32, ptr, i8, [3 x i8], %struct.anon, i32, i32, i32, i32, ptr, i8, ptr, ptr, i16, i16, i32, i32, i16, i32, i32, ptr, ptr, ptr, i8, i8, i16, i16, i16, i32, i16, i16, ptr, ptr, ptr, ptr, ptr, i32, i32 }
%struct.nstime_t = type { i64, i32 }
%struct.anon = type { i8, [3 x i8] }

@.str.8 = private unnamed_addr constant [3 x i8] c"%s\00", align 1

; Function Attrs: null_pointer_is_valid sspstrong uwtable
define internal void @add_avp_to_tree_with_dissector(ptr noundef %0, ptr noundef %1, ptr noundef %2, ptr noundef %3, ptr noundef %4, i32 noundef %5, i32 noundef %6) #0 {
  %8 = alloca ptr, align 8
  %9 = alloca ptr, align 8
  %10 = alloca ptr, align 8
  %11 = alloca ptr, align 8
  %12 = alloca ptr, align 8
  %13 = alloca i32, align 4
  %14 = alloca i32, align 4
  %15 = alloca ptr, align 8
  %16 = alloca ptr, align 8
  store ptr %0, ptr %8, align 8
  store ptr %1, ptr %9, align 8
  store ptr %2, ptr %10, align 8
  store ptr %3, ptr %11, align 8
  store ptr %4, ptr %12, align 8
  store i32 %5, ptr %13, align 4
  store i32 %6, ptr %14, align 4
  call void @llvm.lifetime.start.p0(i64 8, ptr %15) #17
  call void @llvm.lifetime.start.p0(i64 8, ptr %16) #17
  %17 = load ptr, ptr %11, align 8
  %18 = load i32, ptr %14, align 4
  %19 = load i32, ptr %13, align 4
  %20 = call ptr @tvb_new_subset_length(ptr noundef %17, i32 noundef %18, i32 noundef %19)
  store ptr %20, ptr %15, align 8
  %21 = load ptr, ptr %12, align 8
  %22 = load ptr, ptr %8, align 8
  %23 = load ptr, ptr %15, align 8
  %24 = load ptr, ptr %10, align 8
  %25 = call ptr %21(ptr noundef %22, ptr noundef %23, ptr noundef %24)
  store ptr %25, ptr %16, align 8
  %26 = load ptr, ptr %9, align 8
  %27 = load ptr, ptr %16, align 8
  call void (ptr, ptr, ...) @proto_item_append_text(ptr noundef %26, ptr noundef @.str.8, ptr noundef %27)
  call void @llvm.lifetime.end.p0(i64 8, ptr %16) #17
  call void @llvm.lifetime.end.p0(i64 8, ptr %15) #17
  ret void
}

; Function Attrs: null_pointer_is_valid sspstrong uwtable
define hidden void @radius_abinary(ptr noundef %0, ptr noundef %1, ptr noundef %2, ptr noundef %3, i32 noundef %4, i32 noundef %5, ptr noundef %6) #0 {
  %8 = alloca ptr, align 8
  %9 = alloca ptr, align 8
  %10 = alloca ptr, align 8
  %11 = alloca ptr, align 8
  %12 = alloca i32, align 4
  %13 = alloca i32, align 4
  %14 = alloca ptr, align 8
  store ptr %0, ptr %8, align 8
  store ptr %1, ptr %9, align 8
  store ptr %2, ptr %10, align 8
  store ptr %3, ptr %11, align 8
  store i32 %4, ptr %12, align 4
  store i32 %5, ptr %13, align 4
  store ptr %6, ptr %14, align 8
  %15 = load ptr, ptr %8, align 8
  %16 = getelementptr inbounds nuw %struct._radius_attr_info_t, ptr %15, i32 0, i32 1
  %17 = getelementptr [2 x i8], ptr %16, i64 0, i64 0
  %18 = load i8, ptr %17, align 8
  %19 = zext i8 %18 to i32
  %20 = icmp eq i32 %19, 242
  br i1 %20, label %21, label %28

21:                                               ; preds = %7
  %22 = load ptr, ptr %9, align 8
  %23 = load ptr, ptr %14, align 8
  %24 = load ptr, ptr %10, align 8
  %25 = load ptr, ptr %11, align 8
  %26 = load i32, ptr %13, align 4
  %27 = load i32, ptr %12, align 4
  call void @add_avp_to_tree_with_dissector(ptr noundef %22, ptr noundef %23, ptr noundef %24, ptr noundef %25, ptr noundef @dissect_ascend_data_filter, i32 noundef %26, i32 noundef %27)
  br label %45

28:                                               ; preds = %7
  %29 = load ptr, ptr %9, align 8
  %30 = load ptr, ptr %8, align 8
  %31 = getelementptr inbounds nuw %struct._radius_attr_info_t, ptr %30, i32 0, i32 9
  %32 = load i32, ptr %31, align 4
  %33 = load ptr, ptr %11, align 8
  %34 = load i32, ptr %12, align 4
  %35 = load i32, ptr %13, align 4
  %36 = call ptr @proto_tree_add_item(ptr noundef %29, i32 noundef %32, ptr noundef %33, i32 noundef %34, i32 noundef %35, i32 noundef 0)
  %37 = load ptr, ptr %14, align 8
  %38 = load ptr, ptr %10, align 8
  %39 = getelementptr inbounds nuw %struct._packet_info, ptr %38, i32 0, i32 51
  %40 = load ptr, ptr %39, align 8
  %41 = load ptr, ptr %11, align 8
  %42 = load i32, ptr %12, align 4
  %43 = load i32, ptr %13, align 4
  %44 = call ptr @tvb_bytes_to_str(ptr noundef %40, ptr noundef %41, i32 noundef %42, i32 noundef %43)
  call void (ptr, ptr, ...) @proto_item_append_text(ptr noundef %37, ptr noundef @.str.8, ptr noundef %44)
  br label %45

45:                                               ; preds = %28, %21
  ret void
}