; Function Attrs: null_pointer_is_valid sspstrong uwtable
define hidden void @radius_abinary(ptr noundef readonly captures(none) %0, ptr noundef %1, ptr noundef readonly captures(none) %2, ptr noundef %3, i32 noundef %4, i32 noundef %5, ptr noundef %6) #0 {
  %8 = alloca %struct._address, align 8
  %9 = alloca %struct._address, align 8
  %10 = getelementptr inbounds nuw i8, ptr %0, i64 8
  %11 = load i8, ptr %10, align 8
  %12 = icmp eq i8 %11, -14
  br i1 %12, label %13, label %136

13:                                               ; preds = %7
  %14 = tail call ptr @tvb_new_subset_length(ptr noundef %3, i32 noundef %4, i32 noundef %5)
  call void @llvm.lifetime.start.p0(i64 24, ptr nonnull %8) #14
  call void @llvm.lifetime.start.p0(i64 24, ptr nonnull %9) #14
  %15 = tail call i32 @tvb_reported_length(ptr noundef %14)
  switch i32 %15, label %16 [
    i32 48, label %20
    i32 24, label %20
  ]

16:                                               ; preds = %13
  %17 = getelementptr inbounds nuw i8, ptr %2, i64 408
  %18 = load ptr, ptr %17, align 8
  %19 = tail call noalias ptr (ptr, ptr, ...) @wmem_strdup_printf(ptr noundef %18, ptr noundef nonnull @.str.78, i32 noundef %15)
  br label %dissect_ascend_data_filter.exit

20:                                               ; preds = %13, %13
  %21 = getelementptr inbounds nuw i8, ptr %2, i64 408
  %22 = load ptr, ptr %21, align 8
  %23 = tail call noalias ptr @wmem_strbuf_new_sized(ptr noundef %22, i64 noundef 128)
  %24 = load i32, ptr @hf_radius_ascend_data_filter, align 4
  %25 = tail call ptr @proto_tree_add_item(ptr noundef %1, i32 noundef %24, ptr noundef %14, i32 noundef 0, i32 noundef -1, i32 noundef 0)
  %26 = load i32, ptr @ett_radius_ascend, align 4
  %27 = tail call ptr @proto_item_add_subtree(ptr noundef %25, i32 noundef %26)
  %28 = load i32, ptr @hf_radius_ascend_data_filter_type, align 4
  %29 = tail call ptr @proto_tree_add_item(ptr noundef %27, i32 noundef %28, ptr noundef %14, i32 noundef 0, i32 noundef 1, i32 noundef 0)
  %30 = tail call zeroext i8 @tvb_get_uint8(ptr noundef %14, i32 noundef 0)
  %31 = zext i8 %30 to i32
  %32 = icmp eq i8 %30, 3
  %spec.select.i = select i1 %32, i32 32, i32 8
  %33 = load i32, ptr @hf_radius_ascend_data_filter_filteror, align 4
  %34 = tail call ptr @proto_tree_add_item(ptr noundef %27, i32 noundef %33, ptr noundef %14, i32 noundef 1, i32 noundef 1, i32 noundef 0)
  %35 = load i32, ptr @hf_radius_ascend_data_filter_inout, align 4
  %36 = tail call ptr @proto_tree_add_item(ptr noundef %27, i32 noundef %35, ptr noundef %14, i32 noundef 2, i32 noundef 1, i32 noundef 0)
  %37 = load i32, ptr @hf_radius_ascend_data_filter_spare, align 4
  %38 = tail call ptr @proto_tree_add_item(ptr noundef %27, i32 noundef %37, ptr noundef %14, i32 noundef 3, i32 noundef 1, i32 noundef 0)
  br i1 %32, label %39, label %44

39:                                               ; preds = %20
  %40 = load i32, ptr @hf_radius_ascend_data_filter_src_ipv6, align 4
  %41 = tail call ptr @proto_tree_add_item(ptr noundef %27, i32 noundef %40, ptr noundef %14, i32 noundef 4, i32 noundef 16, i32 noundef 0)
  %42 = load i32, ptr @hf_radius_ascend_data_filter_dst_ipv6, align 4
  %43 = tail call ptr @proto_tree_add_item(ptr noundef %27, i32 noundef %42, ptr noundef %14, i32 noundef 20, i32 noundef 16, i32 noundef 0)
  br label %49

44:                                               ; preds = %20
  %45 = load i32, ptr @hf_radius_ascend_data_filter_src_ipv4, align 4
  %46 = tail call ptr @proto_tree_add_item(ptr noundef %27, i32 noundef %45, ptr noundef %14, i32 noundef 4, i32 noundef 4, i32 noundef 0)
  %47 = load i32, ptr @hf_radius_ascend_data_filter_dst_ipv4, align 4
  %48 = tail call ptr @proto_tree_add_item(ptr noundef %27, i32 noundef %47, ptr noundef %14, i32 noundef 8, i32 noundef 4, i32 noundef 0)
  br label %49

49:                                               ; preds = %44, %39
  %.0.i = phi i32 [ 36, %39 ], [ 12, %44 ]
  %50 = load i32, ptr @hf_radius_ascend_data_filter_src_ip_prefix, align 4
  %51 = tail call ptr @proto_tree_add_item(ptr noundef %27, i32 noundef %50, ptr noundef %14, i32 noundef %.0.i, i32 noundef 1, i32 noundef 0)
  %52 = or disjoint i32 %.0.i, 1
  %53 = load i32, ptr @hf_radius_ascend_data_filter_dst_ip_prefix, align 4
  %54 = tail call ptr @proto_tree_add_item(ptr noundef %27, i32 noundef %53, ptr noundef %14, i32 noundef %52, i32 noundef 1, i32 noundef 0)
  %55 = or disjoint i32 %.0.i, 2
  %56 = load i32, ptr @hf_radius_ascend_data_filter_protocol, align 4
  %57 = tail call ptr @proto_tree_add_item(ptr noundef %27, i32 noundef %56, ptr noundef %14, i32 noundef %55, i32 noundef 1, i32 noundef 0)
  %58 = or disjoint i32 %.0.i, 3
  %59 = load i32, ptr @hf_radius_ascend_data_filter_established, align 4
  %60 = tail call ptr @proto_tree_add_item(ptr noundef %27, i32 noundef %59, ptr noundef %14, i32 noundef %58, i32 noundef 1, i32 noundef 0)
  %61 = add nuw nsw i32 %.0.i, 4
  %62 = load i32, ptr @hf_radius_ascend_data_filter_src_port, align 4
  %63 = tail call ptr @proto_tree_add_item(ptr noundef %27, i32 noundef %62, ptr noundef %14, i32 noundef %61, i32 noundef 2, i32 noundef 0)
  %64 = add nuw nsw i32 %.0.i, 6
  %65 = load i32, ptr @hf_radius_ascend_data_filter_dst_port, align 4
  %66 = tail call ptr @proto_tree_add_item(ptr noundef %27, i32 noundef %65, ptr noundef %14, i32 noundef %64, i32 noundef 2, i32 noundef 0)
  %67 = add nuw nsw i32 %.0.i, 8
  %68 = load i32, ptr @hf_radius_ascend_data_filter_src_port_qualifier, align 4
  %69 = tail call ptr @proto_tree_add_item(ptr noundef %27, i32 noundef %68, ptr noundef %14, i32 noundef %67, i32 noundef 1, i32 noundef 0)
  %70 = add nuw nsw i32 %.0.i, 9
  %71 = load i32, ptr @hf_radius_ascend_data_filter_dst_port_qualifier, align 4
  %72 = tail call ptr @proto_tree_add_item(ptr noundef %27, i32 noundef %71, ptr noundef %14, i32 noundef %70, i32 noundef 1, i32 noundef 0)
  %73 = add nuw nsw i32 %.0.i, 10
  %74 = load i32, ptr @hf_radius_ascend_data_filter_reserved, align 4
  %75 = tail call ptr @proto_tree_add_item(ptr noundef %27, i32 noundef %74, ptr noundef %14, i32 noundef %73, i32 noundef 2, i32 noundef 0)
  %76 = tail call ptr @val_to_str(i32 noundef %31, ptr noundef nonnull @ascenddf_filtertype, ptr noundef nonnull @.str.4)
  %77 = tail call zeroext i8 @tvb_get_uint8(ptr noundef %14, i32 noundef 2)
  %78 = zext i8 %77 to i32
  %79 = tail call ptr @val_to_str(i32 noundef %78, ptr noundef nonnull @ascenddf_inout, ptr noundef nonnull @.str.4)
  %80 = tail call zeroext i8 @tvb_get_uint8(ptr noundef %14, i32 noundef 1)
  %81 = zext i8 %80 to i32
  %82 = tail call ptr @val_to_str(i32 noundef %81, ptr noundef nonnull @ascenddf_filteror, ptr noundef nonnull @.str.4)
  tail call void (ptr, ptr, ...) @wmem_strbuf_append_printf(ptr noundef %23, ptr noundef nonnull @.str.79, ptr noundef %76, ptr noundef %79, ptr noundef %82)
  %83 = or disjoint i32 %spec.select.i, 6
  %84 = tail call zeroext i8 @tvb_get_uint8(ptr noundef %14, i32 noundef %83)
  %.not.i = icmp eq i8 %84, 0
  br i1 %.not.i, label %88, label %85

85:                                               ; preds = %49
  %86 = zext i8 %84 to i32
  %87 = tail call ptr @val_to_str(i32 noundef %86, ptr noundef nonnull @ascenddf_proto, ptr noundef nonnull @.str.4)
  tail call void (ptr, ptr, ...) @wmem_strbuf_append_printf(ptr noundef %23, ptr noundef nonnull @.str.80, ptr noundef %87)
  br label %88

88:                                               ; preds = %85, %49
  %..i = select i1 %32, i32 16, i32 4
  %.146.i = select i1 %32, i32 3, i32 2
  %89 = tail call ptr @tvb_get_ptr(ptr noundef %14, i32 noundef 4, i32 noundef %..i)
  store i32 %.146.i, ptr %8, align 8
  %90 = getelementptr inbounds nuw i8, ptr %8, i64 4
  store i32 %..i, ptr %90, align 4
  %91 = getelementptr inbounds nuw i8, ptr %8, i64 8
  store ptr %89, ptr %91, align 8
  %92 = getelementptr inbounds nuw i8, ptr %8, i64 16
  store ptr null, ptr %92, align 8
  %93 = or disjoint i32 %spec.select.i, 4
  %94 = tail call zeroext i8 @tvb_get_uint8(ptr noundef %14, i32 noundef %93)
  %95 = add nuw nsw i32 %spec.select.i, 9
  %96 = tail call zeroext i16 @tvb_get_ntohs(ptr noundef %14, i32 noundef %95)
  %97 = add nuw nsw i32 %spec.select.i, 12
  %98 = tail call zeroext i8 @tvb_get_uint8(ptr noundef %14, i32 noundef %97)
  %99 = icmp ne i8 %94, 0
  %100 = zext i8 %98 to i32
  %101 = icmp ne i8 %98, 0
  %or.cond4.i = select i1 %99, i1 true, i1 %101
  br i1 %or.cond4.i, label %102, label %109

102:                                              ; preds = %88
  %103 = zext i8 %94 to i32
  %104 = load ptr, ptr %21, align 8
  %105 = call ptr @address_to_display(ptr noundef %104, ptr noundef nonnull %8)
  call void (ptr, ptr, ...) @wmem_strbuf_append_printf(ptr noundef %23, ptr noundef nonnull @.str.81, ptr noundef %105, i32 noundef %103)
  %.not138.i = icmp eq i8 %98, 0
  br i1 %.not138.i, label %109, label %106

106:                                              ; preds = %102
  %107 = call ptr @val_to_str(i32 noundef %100, ptr noundef nonnull @ascenddf_portq, ptr noundef nonnull @.str.4)
  %108 = zext i16 %96 to i32
  call void (ptr, ptr, ...) @wmem_strbuf_append_printf(ptr noundef %23, ptr noundef nonnull @.str.82, ptr noundef %107, i32 noundef %108)
  br label %109

109:                                              ; preds = %106, %102, %88
  br i1 %32, label %110, label %112

110:                                              ; preds = %109
  %111 = call ptr @tvb_get_ptr(ptr noundef %14, i32 noundef range(i32 4, 21) 20, i32 noundef 16)
  br label %114

112:                                              ; preds = %109
  %113 = call ptr @tvb_get_ptr(ptr noundef %14, i32 noundef range(i32 4, 21) 8, i32 noundef 4)
  br label %114

114:                                              ; preds = %112, %110
  %.sink144.i = phi i32 [ 3, %110 ], [ 2, %112 ]
  %.sink143.i = phi i32 [ 16, %110 ], [ 4, %112 ]
  %.sink142.i = phi ptr [ %111, %110 ], [ %113, %112 ]
  store i32 %.sink144.i, ptr %9, align 8
  %115 = getelementptr inbounds nuw i8, ptr %9, i64 4
  store i32 %.sink143.i, ptr %115, align 4
  %116 = getelementptr inbounds nuw i8, ptr %9, i64 8
  store ptr %.sink142.i, ptr %116, align 8
  %117 = getelementptr inbounds nuw i8, ptr %9, i64 16
  store ptr null, ptr %117, align 8
  %118 = or disjoint i32 %spec.select.i, 5
  %119 = call zeroext i8 @tvb_get_uint8(ptr noundef %14, i32 noundef %118)
  %120 = add nuw nsw i32 %spec.select.i, 10
  %121 = call zeroext i16 @tvb_get_ntohs(ptr noundef %14, i32 noundef %120)
  %122 = add nuw nsw i32 %spec.select.i, 13
  %123 = call zeroext i8 @tvb_get_uint8(ptr noundef %14, i32 noundef %122)
  %124 = icmp ne i8 %119, 0
  %125 = zext i8 %123 to i32
  %126 = icmp ne i8 %123, 0
  %or.cond7.i = select i1 %124, i1 true, i1 %126
  br i1 %or.cond7.i, label %127, label %134

127:                                              ; preds = %114
  %128 = zext i8 %119 to i32
  %129 = load ptr, ptr %21, align 8
  %130 = call ptr @address_to_display(ptr noundef %129, ptr noundef nonnull %9)
  call void (ptr, ptr, ...) @wmem_strbuf_append_printf(ptr noundef %23, ptr noundef nonnull @.str.83, ptr noundef %130, i32 noundef %128)
  %.not139.i = icmp eq i8 %123, 0
  br i1 %.not139.i, label %134, label %131

131:                                              ; preds = %127
  %132 = call ptr @val_to_str(i32 noundef %125, ptr noundef nonnull @ascenddf_portq, ptr noundef nonnull @.str.4)
  %133 = zext i16 %121 to i32
  call void (ptr, ptr, ...) @wmem_strbuf_append_printf(ptr noundef %23, ptr noundef nonnull @.str.84, ptr noundef %132, i32 noundef %133)
  br label %134

134:                                              ; preds = %131, %127, %114
  %135 = call ptr @wmem_strbuf_get_str(ptr noundef %23)
  br label %dissect_ascend_data_filter.exit

dissect_ascend_data_filter.exit:                  ; preds = %16, %134
  %.0135.i = phi ptr [ %19, %16 ], [ %135, %134 ]
  call void @llvm.lifetime.end.p0(i64 24, ptr nonnull %9) #14
  call void @llvm.lifetime.end.p0(i64 24, ptr nonnull %8) #14
  call void (ptr, ptr, ...) @proto_item_append_text(ptr noundef %6, ptr noundef nonnull @.str.8, ptr noundef %.0135.i)
  br label %143

136:                                              ; preds = %7
  %137 = getelementptr inbounds nuw i8, ptr %0, i64 52
  %138 = load i32, ptr %137, align 4
  %139 = tail call ptr @proto_tree_add_item(ptr noundef %1, i32 noundef %138, ptr noundef %3, i32 noundef %4, i32 noundef %5, i32 noundef 0)
  %140 = getelementptr inbounds nuw i8, ptr %2, i64 408
  %141 = load ptr, ptr %140, align 8
  %142 = tail call ptr @tvb_bytes_to_str(ptr noundef %141, ptr noundef %3, i32 noundef %4, i32 noundef %5)
  tail call void (ptr, ptr, ...) @proto_item_append_text(ptr noundef %6, ptr noundef nonnull @.str.8, ptr noundef %142)
  br label %143

143:                                              ; preds = %136, %dissect_ascend_data_filter.exit
  ret void
}